target datalayout = "e-m:e-p270:32:32-p271:32:32-p272:64:64-i64:64-i128:128-f80:128-n8:16:32:64-S128"
target triple = "x86_64-pc-linux-gnu"

%struct.sigalg_lookup_st = type { ptr, i16, i32, i32, i32, i32, i32, i32, i32 }

; Function Attrs: nounwind uwtable
define i32 @tls1_lookup_md(ptr noundef %0, ptr noundef %1, ptr noundef %2) #1 {
  %4 = alloca i32, align 4
  %5 = alloca ptr, align 8
  %6 = alloca ptr, align 8
  %7 = alloca ptr, align 8
  %8 = alloca ptr, align 8
  %9 = alloca i32, align 4
  store ptr %0, ptr %5, align 8, !tbaa !80
  store ptr %1, ptr %6, align 8, !tbaa !201
  store ptr %2, ptr %7, align 8, !tbaa !229
  call void @llvm.lifetime.start.p0(i64 8, ptr %8) #8
  %10 = load ptr, ptr %6, align 8, !tbaa !201
  %11 = icmp eq ptr %10, null
  br i1 %11, label %12, label %13

12:                                               ; preds = %3
  store i32 0, ptr %4, align 4
  store i32 1, ptr %9, align 4
  br label %36

13:                                               ; preds = %3
  %14 = load ptr, ptr %6, align 8, !tbaa !201
  %15 = getelementptr inbounds nuw %struct.sigalg_lookup_st, ptr %14, i32 0, i32 2
  %16 = load i32, ptr %15, align 4, !tbaa !204
  %17 = icmp eq i32 %16, 0
  br i1 %17, label %18, label %19

18:                                               ; preds = %13
  store ptr null, ptr %8, align 8, !tbaa !207
  br label %29

19:                                               ; preds = %13
  %20 = load ptr, ptr %5, align 8, !tbaa !80
  %21 = load ptr, ptr %6, align 8, !tbaa !201
  %22 = getelementptr inbounds nuw %struct.sigalg_lookup_st, ptr %21, i32 0, i32 3
  %23 = load i32, ptr %22, align 8, !tbaa !206
  %24 = call ptr @ssl_md(ptr noundef %20, i32 noundef %23)
  store ptr %24, ptr %8, align 8, !tbaa !207
  %25 = load ptr, ptr %8, align 8, !tbaa !207
  %26 = icmp eq ptr %25, null
  br i1 %26, label %27, label %28

27:                                               ; preds = %19
  store i32 0, ptr %4, align 4
  store i32 1, ptr %9, align 4
  br label %36

28:                                               ; preds = %19
  br label %29

29:                                               ; preds = %28, %18
  %30 = load ptr, ptr %7, align 8, !tbaa !229
  %31 = icmp ne ptr %30, null
  br i1 %31, label %32, label %35

32:                                               ; preds = %29
  %33 = load ptr, ptr %8, align 8, !tbaa !207
  %34 = load ptr, ptr %7, align 8, !tbaa !229
  store ptr %33, ptr %34, align 8, !tbaa !207
  br label %35

35:                                               ; preds = %32, %29
  store i32 1, ptr %4, align 4
  store i32 1, ptr %9, align 4
  br label %36

36:                                               ; preds = %35, %27, %12
  call void @llvm.lifetime.end.p0(i64 8, ptr %8) #8
  %37 = load i32, ptr %4, align 4
  ret i32 %37
}