; Function Attrs: nounwind uwtable
define range(i32 0, 2) i32 @tls1_lookup_md(ptr noundef %0, ptr noundef readonly captures(address_is_null) %1, ptr noundef writeonly captures(address_is_null) %2) local_unnamed_addr #2 {
  %4 = icmp eq ptr %1, null
  br i1 %4, label %16, label %5

5:                                                ; preds = %3
  %6 = getelementptr inbounds nuw i8, ptr %1, i64 12
  %7 = load i32, ptr %6, align 4, !tbaa !178
  %8 = icmp eq i32 %7, 0
  br i1 %8, label %14, label %9

9:                                                ; preds = %5
  %10 = getelementptr inbounds nuw i8, ptr %1, i64 16
  %11 = load i32, ptr %10, align 8, !tbaa !180
  %12 = tail call ptr @ssl_md(ptr noundef %0, i32 noundef %11) #14
  %13 = icmp eq ptr %12, null
  br i1 %13, label %16, label %14

14:                                               ; preds = %5, %9
  %.0 = phi ptr [ %12, %9 ], [ null, %5 ]
  %.not = icmp eq ptr %2, null
  br i1 %.not, label %16, label %15

15:                                               ; preds = %14
  store ptr %.0, ptr %2, align 8, !tbaa !181
  br label %16

16:                                               ; preds = %14, %15, %9, %3
  %.08 = phi i32 [ 0, %3 ], [ 0, %9 ], [ 1, %15 ], [ 1, %14 ]
  ret i32 %.08
}